; Function Attrs: mustprogress nounwind uwtable
define dso_local void @_ZN4enki13TaskScheduler22WakeThreadsForNewTasksEv(ptr noundef nonnull align 8 captures(none) dereferenceable(220) %0) local_unnamed_addr #2 align 2 {
  %2 = getelementptr inbounds nuw i8, ptr %0, i64 80
  %3 = load atomic i32, ptr %2 monotonic, align 8
  %.old1 = icmp sgt i32 %3, 0
  br i1 %.old1, label %.preheader, label %_ZN4enki15SemaphoreSignalERNS_13semaphoreid_tEi.exit

.preheader:                                       ; preds = %1, %_ZNSt13__atomic_baseIiE21compare_exchange_weakERiiSt12memory_orderS2_.exit
  %.0 = phi i32 [ %6, %_ZNSt13__atomic_baseIiE21compare_exchange_weakERiiSt12memory_orderS2_.exit ], [ %3, %1 ]
  %4 = cmpxchg weak ptr %2, i32 %.0, i32 0 release monotonic, align 4
  %5 = extractvalue { i32, i1 } %4, 1
  br i1 %5, label %.critedge.thread, label %_ZNSt13__atomic_baseIiE21compare_exchange_weakERiiSt12memory_orderS2_.exit

_ZNSt13__atomic_baseIiE21compare_exchange_weakERiiSt12memory_orderS2_.exit: ; preds = %.preheader
  %6 = extractvalue { i32, i1 } %4, 0
  %7 = icmp slt i32 %6, 1
  br i1 %7, label %_ZN4enki15SemaphoreSignalERNS_13semaphoreid_tEi.exit, label %.preheader, !llvm.loop !55

.critedge.thread:                                 ; preds = %.preheader
  %8 = getelementptr inbounds nuw i8, ptr %0, i64 96
  %9 = load ptr, ptr %8, align 8, !tbaa !56
  br label %.lr.ph.i

.lr.ph.i:                                         ; preds = %.critedge.thread, %.lr.ph.i
  %.01.i = phi i32 [ %10, %.lr.ph.i ], [ %.0, %.critedge.thread ]
  %10 = add nsw i32 %.01.i, -1
  %11 = tail call i32 @sem_post(ptr noundef nonnull align 1 %9) #26
  %12 = icmp samesign ugt i32 %.01.i, 1
  br i1 %12, label %.lr.ph.i, label %_ZN4enki15SemaphoreSignalERNS_13semaphoreid_tEi.exit, !llvm.loop !34

_ZN4enki15SemaphoreSignalERNS_13semaphoreid_tEi.exit: ; preds = %_ZNSt13__atomic_baseIiE21compare_exchange_weakERiiSt12memory_orderS2_.exit, %.lr.ph.i, %1
  %13 = getelementptr inbounds nuw i8, ptr %0, i64 84
  %14 = load atomic i32, ptr %13 monotonic, align 4
  %.old1.i = icmp sgt i32 %14, 0
  br i1 %.old1.i, label %.preheader.i, label %_ZN4enki13TaskScheduler28WakeThreadsForTaskCompletionEv.exit

.preheader.i:                                     ; preds = %_ZN4enki15SemaphoreSignalERNS_13semaphoreid_tEi.exit, %_ZNSt13__atomic_baseIiE21compare_exchange_weakERiiSt12memory_orderS2_.exit.i
  %.0.i = phi i32 [ %17, %_ZNSt13__atomic_baseIiE21compare_exchange_weakERiiSt12memory_orderS2_.exit.i ], [ %14, %_ZN4enki15SemaphoreSignalERNS_13semaphoreid_tEi.exit ]
  %15 = cmpxchg weak ptr %13, i32 %.0.i, i32 0 release monotonic, align 4
  %16 = extractvalue { i32, i1 } %15, 1
  br i1 %16, label %.critedge.thread.i, label %_ZNSt13__atomic_baseIiE21compare_exchange_weakERiiSt12memory_orderS2_.exit.i

_ZNSt13__atomic_baseIiE21compare_exchange_weakERiiSt12memory_orderS2_.exit.i: ; preds = %.preheader.i
  %17 = extractvalue { i32, i1 } %15, 0
  %18 = icmp slt i32 %17, 1
  br i1 %18, label %_ZN4enki13TaskScheduler28WakeThreadsForTaskCompletionEv.exit, label %.preheader.i, !llvm.loop !31

.critedge.thread.i:                               ; preds = %.preheader.i
  %19 = getelementptr inbounds nuw i8, ptr %0, i64 104
  %20 = load ptr, ptr %19, align 8, !tbaa !33
  br label %.lr.ph.i.i

.lr.ph.i.i:                                       ; preds = %.lr.ph.i.i, %.critedge.thread.i
  %.01.i.i = phi i32 [ %21, %.lr.ph.i.i ], [ %.0.i, %.critedge.thread.i ]
  %21 = add nsw i32 %.01.i.i, -1
  %22 = tail call i32 @sem_post(ptr noundef nonnull align 1 %20) #26
  %23 = icmp samesign ugt i32 %.01.i.i, 1
  br i1 %23, label %.lr.ph.i.i, label %_ZN4enki13TaskScheduler28WakeThreadsForTaskCompletionEv.exit, !llvm.loop !34

_ZN4enki13TaskScheduler28WakeThreadsForTaskCompletionEv.exit: ; preds = %_ZNSt13__atomic_baseIiE21compare_exchange_weakERiiSt12memory_orderS2_.exit.i, %.lr.ph.i.i, %_ZN4enki15SemaphoreSignalERNS_13semaphoreid_tEi.exit
  ret void
}